(dp0
S'SS_onestepCC'
p1
(dp2
I1
(I1000
I110
I60
tp3
sI2
(I1000
I160
I60
tp4
sI3
(I1000
I260
I60
tp5
sI4
(I1000
I460
I60
tp6
sI5
(I1000
I660
I60
tp7
sI6
(I1000
I70
I60
tp8
sI7
(I1000
I800
I60
tp9
sI8
(I1000
I860
I60
tp10
sI9
(I1000
I900
I60
tp11
sI10
(I1000
I950
I60
tp12
sI11
(I1000
I990
I60
tp13
sI12
(I1025
I525
I25
tp14
sI13
(I1025
I575
I125
tp15
sI14
(I1025
I625
I225
tp16
sI15
(I1025
I675
I325
tp17
sI16
(I1025
I725
I425
tp18
sI17
(I1025
I775
I525
tp19
sI18
(I1025
I825
I625
tp20
sI19
(I1025
I875
I725
tp21
sI20
(I1100
I1000
I60
tp22
sI21
(I1100
I1050
I60
tp23
sI22
(I1100
I1090
I60
tp24
sI23
(I1100
I110
I60
tp25
sI24
(I1100
I160
I60
tp26
sI25
(I1100
I260
I60
tp27
sI26
(I1100
I460
I60
tp28
sI27
(I1100
I660
I60
tp29
sI28
(I1100
I70
I60
tp30
sI29
(I1100
I860
I60
tp31
sI30
(I1125
I575
I25
tp32
sI31
(I1125
I625
I125
tp33
sI32
(I1125
I675
I225
tp34
sI33
(I1125
I725
I325
tp35
sI34
(I1125
I775
I425
tp36
sI35
(I1125
I825
I525
tp37
sI36
(I1125
I875
I625
tp38
sI37
(I1125
I925
I725
tp39
sI38
(I1200
I1000
I60
tp40
sI39
(I1200
I1060
I60
tp41
sI40
(I1200
I1100
I60
tp42
sI41
(I1200
I110
I60
tp43
sI42
(I1200
I1150
I60
tp44
sI43
(I1200
I1190
I60
tp45
sI44
(I1200
I160
I60
tp46
sI45
(I1200
I260
I60
tp47
sI46
(I1200
I460
I60
tp48
sI47
(I1200
I660
I60
tp49
sI48
(I1200
I70
I60
tp50
sI49
(I1200
I860
I60
tp51
sI50
(I1225
I625
I25
tp52
sI51
(I1225
I675
I125
tp53
sI52
(I1225
I725
I225
tp54
sI53
(I1225
I775
I325
tp55
sI54
(I1225
I825
I425
tp56
sI55
(I1225
I875
I525
tp57
sI56
(I1225
I925
I625
tp58
sI57
(I1225
I975
I725
tp59
sI58
(I1300
I1060
I60
tp60
sI59
(I1300
I110
I60
tp61
sI60
(I1300
I1160
I60
tp62
sI61
(I1300
I1200
I60
tp63
sI62
(I1300
I1250
I60
tp64
sI63
(I1300
I1290
I60
tp65
sI64
(I1300
I160
I60
tp66
sI65
(I1300
I260
I60
tp67
sI66
(I1300
I460
I60
tp68
sI67
(I1300
I660
I60
tp69
sI68
(I1300
I70
I60
tp70
sI69
(I1300
I860
I60
tp71
sI70
(I1325
I1025
I725
tp72
sI71
(I1325
I675
I25
tp73
sI72
(I1325
I725
I125
tp74
sI73
(I1325
I775
I225
tp75
sI74
(I1325
I825
I325
tp76
sI75
(I1325
I875
I425
tp77
sI76
(I1325
I925
I525
tp78
sI77
(I1325
I975
I625
tp79
sI78
(I1400
I1060
I60
tp80
sI79
(I1400
I1160
I60
tp81
sI80
(I1400
I1260
I60
tp82
sI81
(I1400
I1350
I60
tp83
sI82
(I1400
I1390
I60
tp84
sI83
(I1400
I160
I60
tp85
sI84
(I1400
I260
I60
tp86
sI85
(I1400
I460
I60
tp87
sI86
(I1400
I70
I60
tp88
sI87
(I1400
I860
I60
tp89
sI88
(I1425
I1025
I625
tp90
sI89
(I1425
I1075
I725
tp91
sI90
(I1425
I725
I25
tp92
sI91
(I1425
I775
I125
tp93
sI92
(I1425
I825
I225
tp94
sI93
(I1425
I875
I325
tp95
sI94
(I1425
I925
I425
tp96
sI95
(I1425
I975
I525
tp97
sI96
(I1500
I1060
I60
tp98
sI97
(I1500
I1260
I60
tp99
sI98
(I1500
I1360
I60
tp100
sI99
(I1500
I1450
I60
tp101
sI100
(I1500
I1490
I60
tp102
sI101
(I1500
I160
I60
tp103
sI102
(I1500
I260
I60
tp104
sI103
(I1500
I460
I60
tp105
sI104
(I1500
I660
I60
tp106
sI105
(I1500
I70
I60
tp107
sI106
(I1500
I860
I60
tp108
sI107
(I225
I125
I25
tp109
sI108
(I225
I150
I75
tp110
sI109
(I225
I175
I125
tp111
sI110
(I225
I200
I175
tp112
sI111
(I225
I215
I205
tp113
sI112
(I325
I175
I25
tp114
sI113
(I325
I225
I125
tp115
sI114
(I325
I275
I225
tp116
sI115
(I325
I300
I275
tp117
sI116
(I325
I315
I305
tp118
sI117
(I425
I225
I25
tp119
sI118
(I425
I275
I125
tp120
sI119
(I425
I325
I225
tp121
sI120
(I425
I375
I325
tp122
sI121
(I425
I400
I375
tp123
sI122
(I425
I415
I405
tp124
sI123
(I525
I275
I25
tp125
sI124
(I525
I325
I125
tp126
sI125
(I525
I375
I225
tp127
sI126
(I525
I425
I325
tp128
sI127
(I525
I475
I425
tp129
sI128
(I525
I500
I475
tp130
sI129
(I525
I515
I505
tp131
sI130
(I600
I110
I60
tp132
sI131
(I600
I160
I60
tp133
sI132
(I600
I260
I60
tp134
sI133
(I600
I400
I60
tp135
sI134
(I600
I460
I60
tp136
sI135
(I600
I500
I60
tp137
sI136
(I600
I550
I60
tp138
sI137
(I600
I590
I60
tp139
sI138
(I600
I70
I60
tp140
sI139
(I625
I325
I25
tp141
sI140
(I625
I375
I125
tp142
sI141
(I625
I425
I225
tp143
sI142
(I625
I475
I325
tp144
sI143
(I625
I525
I425
tp145
sI144
(I625
I575
I525
tp146
sI145
(I625
I600
I575
tp147
sI146
(I625
I615
I605
tp148
sI147
(I700
I110
I60
tp149
sI148
(I700
I160
I60
tp150
sI149
(I700
I260
I60
tp151
sI150
(I700
I460
I60
tp152
sI151
(I700
I500
I60
tp153
sI152
(I700
I600
I60
tp154
sI153
(I700
I650
I60
tp155
sI154
(I700
I660
I60
tp156
sI155
(I700
I690
I60
tp157
sI156
(I700
I70
I60
tp158
sI157
(I725
I375
I25
tp159
sI158
(I725
I425
I125
tp160
sI159
(I725
I475
I225
tp161
sI160
(I725
I525
I325
tp162
sI161
(I725
I575
I425
tp163
sI162
(I725
I625
I525
tp164
sI163
(I725
I675
I625
tp165
sI164
(I725
I700
I675
tp166
sI165
(I725
I715
I705
tp167
sI166
(I800
I110
I60
tp168
sI167
(I800
I160
I60
tp169
sI168
(I800
I260
I60
tp170
sI169
(I800
I460
I60
tp171
sI170
(I800
I600
I60
tp172
sI171
(I800
I660
I60
tp173
sI172
(I800
I700
I60
tp174
sI173
(I800
I70
I60
tp175
sI174
(I800
I750
I60
tp176
sI175
(I800
I790
I60
tp177
sI176
(I825
I425
I25
tp178
sI177
(I825
I475
I125
tp179
sI178
(I825
I525
I225
tp180
sI179
(I825
I575
I325
tp181
sI180
(I825
I625
I425
tp182
sI181
(I825
I675
I525
tp183
sI182
(I825
I725
I625
tp184
sI183
(I825
I775
I725
tp185
sI184
(I900
I110
I60
tp186
sI185
(I900
I160
I60
tp187
sI186
(I900
I260
I60
tp188
sI187
(I900
I460
I60
tp189
sI188
(I900
I660
I60
tp190
sI189
(I900
I700
I60
tp191
sI190
(I900
I70
I60
tp192
sI191
(I900
I800
I60
tp193
sI192
(I900
I850
I60
tp194
sI193
(I900
I860
I60
tp195
sI194
(I900
I890
I60
tp196
sI195
(I925
I475
I25
tp197
sI196
(I925
I525
I125
tp198
sI197
(I925
I575
I225
tp199
sI198
(I925
I625
I325
tp200
sI199
(I925
I675
I425
tp201
sI200
(I925
I725
I525
tp202
sI201
(I925
I775
I625
tp203
sI202
(I925
I825
I725
tp204
ssS'SM_GG_N2'
p205
(dp206
I1
(I1020
I130
I1
tp207
sI2
(I1040
I560
I1
tp208
sI3
(I1090
I810
I1
tp209
sI4
(I1095
I205
I1
tp210
sI5
(I1135
I1065
I1
tp211
sI6
(I1145
I455
I1
tp212
sI7
(I1190
I710
I1
tp213
sI8
(I1200
I100
I1
tp214
sI9
(I1240
I960
I1
tp215
sI10
(I1245
I355
I1
tp216
sI11
(I1285
I1215
I1
tp217
sI12
(I1295
I605
I1
tp218
sI13
(I1340
I860
I1
tp219
sI14
(I1350
I250
I1
tp220
sI15
(I1390
I1110
I1
tp221
sI16
(I1395
I505
I1
tp222
sI17
(I1435
I1365
I1
tp223
sI18
(I1445
I755
I1
tp224
sI19
(I1450
I150
I1
tp225
sI20
(I1490
I1010
I1
tp226
sI21
(I1500
I400
I1
tp227
sI22
(I1540
I1260
I1
tp228
sI23
(I1545
I655
I1
tp229
sI24
(I1585
I1515
I1
tp230
sI25
(I1595
I905
I1
tp231
sI26
(I1600
I300
I1
tp232
sI27
(I1640
I1160
I1
tp233
sI28
(I1650
I550
I1
tp234
sI29
(I1690
I1410
I1
tp235
sI30
(I1695
I805
I1
tp236
sI31
(I1705
I195
I1
tp237
sI32
(I1735
I1665
I1
tp238
sI33
(I1745
I1055
I1
tp239
sI34
(I1750
I450
I1
tp240
sI35
(I1790
I1310
I1
tp241
sI36
(I1800
I700
I1
tp242
sI37
(I1810
I100
I1
tp243
sI38
(I1840
I1560
I1
tp244
sI39
(I1845
I955
I1
tp245
sI40
(I1855
I345
I1
tp246
sI41
(I1885
I1815
I1
tp247
sI42
(I1895
I1205
I1
tp248
sI43
(I1900
I600
I1
tp249
sI44
(I1940
I1460
I1
tp250
sI45
(I1950
I850
I1
tp251
sI46
(I1960
I250
I1
tp252
sI47
(I1990
I1710
I1
tp253
sI48
(I1995
I1105
I1
tp254
sI49
(I2005
I495
I1
tp255
sI50
(I2035
I1965
I1
tp256
sI51
(I2045
I1355
I1
tp257
sI52
(I2050
I750
I1
tp258
sI53
(I2065
I155
I1
tp259
sI54
(I2090
I1610
I1
tp260
sI55
(I2100
I1000
I1
tp261
sI56
(I2110
I400
I1
tp262
sI57
(I610
I540
I1
tp263
sI58
(I640
I360
I1
tp264
sI59
(I665
I185
I1
tp265
sI60
(I685
I615
I1
tp266
sI61
(I715
I435
I1
tp267
sI62
(I740
I260
I1
tp268
sI63
(I790
I510
I1
tp269
sI64
(I815
I335
I1
tp270
sI65
(I835
I765
I1
tp271
sI66
(I845
I155
I1
tp272
sI67
(I890
I410
I1
tp273
sI68
(I920
I230
I1
tp274
sI69
(I940
I660
I1
tp275
sI70
(I985
I915
I1
tp276
sI71
(I995
I305
I1
tp277
ssS'SS_onestepN2C'
p278
(dp279
I1
(I1000
I460
I60
tp280
sI2
(I1000
I700
I60
tp281
sI3
(I1000
I950
I60
tp282
sI4
(I1200
I1150
I60
tp283
sI5
(I1200
I190
I60
tp284
sI6
(I1200
I500
I60
tp285
sI7
(I1200
I860
I60
tp286
sI8
(I1400
I190
I60
tp287
sI9
(I1400
I560
I60
tp288
sI10
(I1400
I960
I60
tp289
sI11
(I1600
I1160
I60
tp290
sI12
(I1600
I1550
I60
tp291
sI13
(I1600
I190
I60
tp292
sI14
(I1600
I660
I60
tp293
sI15
(I1800
I1260
I60
tp294
sI16
(I1800
I1700
I60
tp295
sI17
(I1800
I190
I60
tp296
sI18
(I1800
I760
I60
tp297
sI19
(I2000
I1460
I60
tp298
sI20
(I2000
I1900
I60
tp299
sI21
(I2000
I190
I60
tp300
sI22
(I2000
I860
I60
tp301
sI23
(I800
I190
I60
tp302
sI24
(I800
I360
I60
tp303
sI25
(I800
I600
I60
tp304
sI26
(I800
I750
I60
tp305
ssS'SS_direct'
p306
(dp307
I1
(I1000
I0
tp308
sI2
(I1000
I100
tp309
sI3
(I1000
I200
tp310
sI4
(I1000
I300
tp311
sI5
(I1000
I400
tp312
sI6
(I1000
I500
tp313
sI7
(I1000
I600
tp314
sI8
(I1000
I800
tp315
sI9
(I1000
I900
tp316
sI10
(I1000
I975
tp317
sI11
(I1050
I0
tp318
sI12
(I1100
I0
tp319
sI13
(I1100
I1000
tp320
sI14
(I1100
I100
tp321
sI15
(I1100
I1075
tp322
sI16
(I1100
I200
tp323
sI17
(I1100
I300
tp324
sI18
(I1100
I400
tp325
sI19
(I1100
I500
tp326
sI20
(I1100
I600
tp327
sI21
(I1100
I700
tp328
sI22
(I1100
I900
tp329
sI23
(I1200
I0
tp330
sI24
(I1200
I1000
tp331
sI25
(I1200
I100
tp332
sI26
(I1200
I1100
tp333
sI27
(I1200
I200
tp334
sI28
(I1200
I300
tp335
sI29
(I1200
I400
tp336
sI30
(I1200
I500
tp337
sI31
(I1200
I600
tp338
sI32
(I1200
I800
tp339
sI33
(I1300
I0
tp340
sI34
(I1300
I100
tp341
sI35
(I1300
I1100
tp342
sI36
(I1300
I200
tp343
sI37
(I1300
I300
tp344
sI38
(I1300
I500
tp345
sI39
(I1300
I600
tp346
sI40
(I1300
I700
tp347
sI41
(I1300
I900
tp348
sI42
(I1400
I0
tp349
sI43
(I1400
I1000
tp350
sI44
(I1400
I100
tp351
sI45
(I1400
I200
tp352
sI46
(I1400
I300
tp353
sI47
(I1400
I400
tp354
sI48
(I1400
I500
tp355
sI49
(I1400
I600
tp356
sI50
(I1400
I800
tp357
sI51
(I1500
I0
tp358
sI52
(I1500
I100
tp359
sI53
(I1500
I1100
tp360
sI54
(I1500
I200
tp361
sI55
(I1500
I300
tp362
sI56
(I1500
I400
tp363
sI57
(I1500
I500
tp364
sI58
(I1500
I600
tp365
sI59
(I1500
I700
tp366
sI60
(I1500
I900
tp367
sI61
(I1600
I0
tp368
sI62
(I1600
I1000
tp369
sI63
(I1600
I100
tp370
sI64
(I1600
I200
tp371
sI65
(I1600
I300
tp372
sI66
(I1600
I400
tp373
sI67
(I1600
I500
tp374
sI68
(I1600
I600
tp375
sI69
(I1600
I800
tp376
sI70
(I1700
I100
tp377
sI71
(I1700
I1100
tp378
sI72
(I1700
I300
tp379
sI73
(I1700
I500
tp380
sI74
(I1700
I700
tp381
sI75
(I1700
I900
tp382
sI76
(I1800
I0
tp383
sI77
(I1800
I1000
tp384
sI78
(I1800
I200
tp385
sI79
(I1800
I400
tp386
sI80
(I1800
I600
tp387
sI81
(I1800
I800
tp388
sI82
(I1900
I100
tp389
sI83
(I1900
I1100
tp390
sI84
(I1900
I300
tp391
sI85
(I1900
I500
tp392
sI86
(I1900
I700
tp393
sI87
(I1900
I900
tp394
sI88
(I2000
I0
tp395
sI89
(I2000
I1000
tp396
sI90
(I2000
I200
tp397
sI91
(I2000
I400
tp398
sI92
(I2000
I600
tp399
sI93
(I2000
I800
tp400
sI94
(I200
I0
tp401
sI95
(I2100
I100
tp402
sI96
(I2100
I1100
tp403
sI97
(I2100
I300
tp404
sI98
(I2100
I500
tp405
sI99
(I2100
I700
tp406
sI100
(I2100
I900
tp407
sI101
(I2200
I0
tp408
sI102
(I2200
I1000
tp409
sI103
(I2200
I200
tp410
sI104
(I2200
I400
tp411
sI105
(I2200
I600
tp412
sI106
(I2200
I800
tp413
sI107
(I300
I250
tp414
sI108
(I300
I275
tp415
sI109
(I400
I0
tp416
sI110
(I400
I300
tp417
sI111
(I400
I350
tp418
sI112
(I400
I375
tp419
sI113
(I400
I385
tp420
sI114
(I400
I395
tp421
sI115
(I425
I375
tp422
sI116
(I450
I425
tp423
sI117
(I450
I435
tp424
sI118
(I450
I445
tp425
sI119
(I500
I300
tp426
sI120
(I500
I400
tp427
sI121
(I500
I450
tp428
sI122
(I500
I475
tp429
sI123
(I500
I485
tp430
sI124
(I500
I495
tp431
sI125
(I550
I525
tp432
sI126
(I550
I535
tp433
sI127
(I550
I545
tp434
sI128
(I600
I0
tp435
sI129
(I600
I300
tp436
sI130
(I600
I400
tp437
sI131
(I600
I500
tp438
sI132
(I600
I550
tp439
sI133
(I600
I575
tp440
sI134
(I600
I585
tp441
sI135
(I600
I595
tp442
sI136
(I650
I625
tp443
sI137
(I650
I635
tp444
sI138
(I650
I645
tp445
sI139
(I700
I300
tp446
sI140
(I700
I400
tp447
sI141
(I700
I500
tp448
sI142
(I700
I600
tp449
sI143
(I700
I675
tp450
sI144
(I700
I685
tp451
sI145
(I700
I695
tp452
sI146
(I800
I0
tp453
sI147
(I800
I100
tp454
sI148
(I800
I200
tp455
sI149
(I800
I300
tp456
sI150
(I800
I400
tp457
sI151
(I800
I500
tp458
sI152
(I800
I600
tp459
sI153
(I800
I700
tp460
sI154
(I800
I775
tp461
sI155
(I900
I0
tp462
sI156
(I900
I100
tp463
sI157
(I900
I200
tp464
sI158
(I900
I300
tp465
sI159
(I900
I400
tp466
sI160
(I900
I500
tp467
sI161
(I900
I600
tp468
sI162
(I900
I700
tp469
sI163
(I900
I800
tp470
sI164
(I900
I875
tp471
ssS'GG_onestepN2C'
p472
(dp473
I1
(I1000
I190
I60
tp474
sI2
(I1000
I460
I60
tp475
sI3
(I1000
I700
I60
tp476
sI4
(I1000
I950
I60
tp477
sI5
(I1200
I1150
I60
tp478
sI6
(I1200
I190
I60
tp479
sI7
(I1200
I500
I60
tp480
sI8
(I1200
I860
I60
tp481
sI9
(I1400
I1350
I60
tp482
sI10
(I1400
I190
I60
tp483
sI11
(I1400
I560
I60
tp484
sI12
(I1400
I960
I60
tp485
sI13
(I1600
I1160
I60
tp486
sI14
(I1600
I1550
I60
tp487
sI15
(I1600
I190
I60
tp488
sI16
(I1600
I660
I60
tp489
sI17
(I1800
I1260
I60
tp490
sI18
(I1800
I1700
I60
tp491
sI19
(I1800
I190
I60
tp492
sI20
(I1800
I760
I60
tp493
sI21
(I2000
I1460
I60
tp494
sI22
(I2000
I1900
I60
tp495
sI23
(I2000
I190
I60
tp496
sI24
(I2000
I860
I60
tp497
sI25
(I800
I190
I60
tp498
sI26
(I800
I360
I60
tp499
sI27
(I800
I750
I60
tp500
ssS'GG_direct'
p501
(dp502
I1
(I1000
I0
tp503
sI2
(I1000
I600
tp504
sI3
(I1000
I800
tp505
sI4
(I1012
I987
tp506
sI5
(I1025
I975
tp507
sI6
(I1050
I550
tp508
sI7
(I1050
I750
tp509
sI8
(I1050
I950
tp510
sI9
(I1100
I100
tp511
sI10
(I1100
I300
tp512
sI11
(I1100
I500
tp513
sI12
(I1100
I700
tp514
sI13
(I1100
I900
tp515
sI14
(I1125
I1075
tp516
sI15
(I112
I87
tp517
sI16
(I1150
I1050
tp518
sI17
(I1150
I250
tp519
sI18
(I1150
I450
tp520
sI19
(I1150
I50
tp521
sI20
(I1150
I650
tp522
sI21
(I1150
I850
tp523
sI22
(I1200
I0
tp524
sI23
(I1200
I1000
tp525
sI24
(I1200
I200
tp526
sI25
(I1200
I400
tp527
sI26
(I1200
I600
tp528
sI27
(I1200
I800
tp529
sI28
(I1225
I1175
tp530
sI29
(I1250
I1150
tp531
sI30
(I1250
I150
tp532
sI31
(I1250
I350
tp533
sI32
(I1250
I550
tp534
sI33
(I1250
I750
tp535
sI34
(I125
I75
tp536
sI35
(I1300
I100
tp537
sI36
(I1300
I1100
tp538
sI37
(I1300
I300
tp539
sI38
(I1300
I500
tp540
sI39
(I1300
I700
tp541
sI40
(I1300
I900
tp542
sI41
(I1325
I1275
tp543
sI42
(I1350
I1250
tp544
sI43
(I1350
I250
tp545
sI44
(I1350
I450
tp546
sI45
(I1350
I50
tp547
sI46
(I1350
I650
tp548
sI47
(I1350
I850
tp549
sI48
(I1400
I0
tp550
sI49
(I1400
I1000
tp551
sI50
(I1400
I1200
tp552
sI51
(I1400
I200
tp553
sI52
(I1400
I400
tp554
sI53
(I1400
I600
tp555
sI54
(I1400
I800
tp556
sI55
(I1425
I1375
tp557
sI56
(I1450
I1350
tp558
sI57
(I1450
I150
tp559
sI58
(I1450
I350
tp560
sI59
(I1450
I550
tp561
sI60
(I1450
I750
tp562
sI61
(I1500
I100
tp563
sI62
(I1500
I1100
tp564
sI63
(I1500
I1300
tp565
sI64
(I1500
I300
tp566
sI65
(I1500
I500
tp567
sI66
(I1500
I700
tp568
sI67
(I1500
I900
tp569
sI68
(I150
I50
tp570
sI69
(I1525
I1475
tp571
sI70
(I1550
I1450
tp572
sI71
(I1550
I250
tp573
sI72
(I1550
I450
tp574
sI73
(I1550
I50
tp575
sI74
(I1550
I650
tp576
sI75
(I1550
I850
tp577
sI76
(I1600
I0
tp578
sI77
(I1600
I1000
tp579
sI78
(I1600
I1200
tp580
sI79
(I1600
I1400
tp581
sI80
(I1600
I200
tp582
sI81
(I1600
I400
tp583
sI82
(I1600
I600
tp584
sI83
(I1600
I800
tp585
sI84
(I1625
I1575
tp586
sI85
(I1650
I150
tp587
sI86
(I1650
I1550
tp588
sI87
(I1650
I350
tp589
sI88
(I1650
I550
tp590
sI89
(I1650
I750
tp591
sI90
(I1700
I100
tp592
sI91
(I1700
I1100
tp593
sI92
(I1700
I1300
tp594
sI93
(I1700
I1500
tp595
sI94
(I1700
I300
tp596
sI95
(I1700
I500
tp597
sI96
(I1700
I700
tp598
sI97
(I1700
I900
tp599
sI98
(I1750
I250
tp600
sI99
(I1750
I450
tp601
sI100
(I1750
I50
tp602
sI101
(I1750
I650
tp603
sI102
(I1750
I850
tp604
sI103
(I1800
I0
tp605
sI104
(I1800
I1000
tp606
sI105
(I1800
I1200
tp607
sI106
(I1800
I1400
tp608
sI107
(I1800
I1600
tp609
sI108
(I1800
I200
tp610
sI109
(I1800
I400
tp611
sI110
(I1800
I600
tp612
sI111
(I1800
I800
tp613
sI112
(I1850
I150
tp614
sI113
(I1850
I350
tp615
sI114
(I1850
I550
tp616
sI115
(I1850
I750
tp617
sI116
(I1900
I100
tp618
sI117
(I1900
I1100
tp619
sI118
(I1900
I1300
tp620
sI119
(I1900
I1500
tp621
sI120
(I1900
I300
tp622
sI121
(I1900
I500
tp623
sI122
(I1900
I700
tp624
sI123
(I1900
I900
tp625
sI124
(I1950
I250
tp626
sI125
(I1950
I450
tp627
sI126
(I1950
I50
tp628
sI127
(I1950
I650
tp629
sI128
(I1950
I850
tp630
sI129
(I2000
I0
tp631
sI130
(I2000
I1000
tp632
sI131
(I2000
I1200
tp633
sI132
(I2000
I1400
tp634
sI133
(I2000
I1600
tp635
sI134
(I2000
I200
tp636
sI135
(I2000
I400
tp637
sI136
(I2000
I600
tp638
sI137
(I2000
I800
tp639
sI138
(I200
I0
tp640
sI139
(I2100
I100
tp641
sI140
(I2100
I1100
tp642
sI141
(I2100
I1300
tp643
sI142
(I2100
I1500
tp644
sI143
(I2100
I300
tp645
sI144
(I2100
I500
tp646
sI145
(I2100
I700
tp647
sI146
(I2100
I900
tp648
sI147
(I212
I187
tp649
sI148
(I2200
I0
tp650
sI149
(I2200
I1000
tp651
sI150
(I2200
I1200
tp652
sI151
(I2200
I1400
tp653
sI152
(I2200
I1600
tp654
sI153
(I2200
I200
tp655
sI154
(I2200
I400
tp656
sI155
(I2200
I600
tp657
sI156
(I2200
I800
tp658
sI157
(I225
I175
tp659
sI158
(I2300
I100
tp660
sI159
(I2300
I1100
tp661
sI160
(I2300
I1300
tp662
sI161
(I2300
I1500
tp663
sI162
(I2300
I300
tp664
sI163
(I2300
I500
tp665
sI164
(I2300
I700
tp666
sI165
(I2300
I900
tp667
sI166
(I2400
I0
tp668
sI167
(I2400
I1000
tp669
sI168
(I2400
I1200
tp670
sI169
(I2400
I1400
tp671
sI170
(I2400
I1600
tp672
sI171
(I2400
I200
tp673
sI172
(I2400
I400
tp674
sI173
(I2400
I600
tp675
sI174
(I2400
I800
tp676
sI175
(I2500
I100
tp677
sI176
(I2500
I1100
tp678
sI177
(I2500
I1300
tp679
sI178
(I2500
I1500
tp680
sI179
(I2500
I300
tp681
sI180
(I2500
I500
tp682
sI181
(I2500
I700
tp683
sI182
(I2500
I900
tp684
sI183
(I250
I150
tp685
sI184
(I2600
I0
tp686
sI185
(I2600
I1000
tp687
sI186
(I2600
I1200
tp688
sI187
(I2600
I1400
tp689
sI188
(I2600
I200
tp690
sI189
(I2600
I400
tp691
sI190
(I2600
I600
tp692
sI191
(I2600
I800
tp693
sI192
(I400
I0
tp694
sI193
(I412
I387
tp695
sI194
(I425
I375
tp696
sI195
(I550
I450
tp697
sI196
(I600
I0
tp698
sI197
(I612
I587
tp699
sI198
(I625
I575
tp700
sI199
(I650
I550
tp701
sI200
(I700
I500
tp702
sI201
(I712
I687
tp703
sI202
(I725
I675
tp704
sI203
(I750
I450
tp705
sI204
(I750
I650
tp706
sI205
(I800
I0
tp707
sI206
(I800
I600
tp708
sI207
(I812
I787
tp709
sI208
(I825
I775
tp710
sI209
(I850
I550
tp711
sI210
(I850
I750
tp712
sI211
(I900
I500
tp713
sI212
(I900
I700
tp714
sI213
(I912
I887
tp715
sI214
(I925
I875
tp716
sI215
(I950
I450
tp717
sI216
(I950
I650
tp718
sI217
(I950
I850
tp719
ssS'GG_onestepCC'
p720
(dp721
I1
(I1000
I110
I60
tp722
sI2
(I1000
I160
I60
tp723
sI3
(I1000
I260
I60
tp724
sI4
(I1000
I460
I60
tp725
sI5
(I1000
I660
I60
tp726
sI6
(I1000
I70
I60
tp727
sI7
(I1000
I800
I60
tp728
sI8
(I1000
I860
I60
tp729
sI9
(I1000
I900
I60
tp730
sI10
(I1000
I950
I60
tp731
sI11
(I1000
I990
I60
tp732
sI12
(I1025
I705
I385
tp733
sI13
(I1025
I945
I865
tp734
sI14
(I1037
I1026
I1015
tp735
sI15
(I1065
I1025
I985
tp736
sI16
(I1065
I545
I25
tp737
sI17
(I1065
I785
I505
tp738
sI18
(I1105
I625
I145
tp739
sI19
(I1105
I865
I625
tp740
sI20
(I1117
I1106
I1095
tp741
sI21
(I1125
I1085
I1045
tp742
sI22
(I1145
I705
I265
tp743
sI23
(I1145
I945
I745
tp744
sI24
(I1185
I1025
I865
tp745
sI25
(I1185
I785
I385
tp746
sI26
(I1197
I1186
I1175
tp747
sI27
(I1200
I1000
I60
tp748
sI28
(I1200
I1060
I60
tp749
sI29
(I1200
I1100
I60
tp750
sI30
(I1200
I110
I60
tp751
sI31
(I1200
I1150
I60
tp752
sI32
(I1200
I1190
I60
tp753
sI33
(I1200
I160
I60
tp754
sI34
(I1200
I260
I60
tp755
sI35
(I1200
I460
I60
tp756
sI36
(I1200
I660
I60
tp757
sI37
(I1200
I70
I60
tp758
sI38
(I1200
I860
I60
tp759
sI39
(I1205
I1165
I1125
tp760
sI40
(I1225
I1105
I985
tp761
sI41
(I1225
I625
I25
tp762
sI42
(I1225
I865
I505
tp763
sI43
(I1265
I1185
I1105
tp764
sI44
(I1265
I705
I145
tp765
sI45
(I1265
I945
I625
tp766
sI46
(I1277
I1266
I1255
tp767
sI47
(I1285
I1245
I1205
tp768
sI48
(I1300
I1060
I60
tp769
sI49
(I1300
I1100
I60
tp770
sI50
(I1300
I110
I60
tp771
sI51
(I1300
I1200
I60
tp772
sI52
(I1300
I1250
I60
tp773
sI53
(I1300
I1260
I60
tp774
sI54
(I1300
I1290
I60
tp775
sI55
(I1300
I160
I60
tp776
sI56
(I1300
I260
I60
tp777
sI57
(I1300
I460
I60
tp778
sI58
(I1300
I660
I60
tp779
sI59
(I1300
I70
I60
tp780
sI60
(I1300
I860
I60
tp781
sI61
(I1305
I1025
I745
tp782
sI62
(I1305
I785
I265
tp783
sI63
(I1345
I1105
I865
tp784
sI64
(I1345
I865
I385
tp785
sI65
(I1365
I1325
I1285
tp786
sI66
(I1385
I1185
I985
tp787
sI67
(I1385
I705
I25
tp788
sI68
(I1385
I945
I505
tp789
sI69
(I1400
I1060
I60
tp790
sI70
(I1400
I110
I60
tp791
sI71
(I1400
I1200
I60
tp792
sI72
(I1400
I1260
I60
tp793
sI73
(I1400
I1300
I60
tp794
sI74
(I1400
I1350
I60
tp795
sI75
(I1400
I1390
I60
tp796
sI76
(I1400
I160
I60
tp797
sI77
(I1400
I260
I60
tp798
sI78
(I1400
I460
I60
tp799
sI79
(I1400
I660
I60
tp800
sI80
(I1400
I70
I60
tp801
sI81
(I1400
I860
I60
tp802
sI82
(I1425
I1025
I625
tp803
sI83
(I1425
I1265
I1105
tp804
sI84
(I1425
I785
I145
tp805
sI85
(I1465
I1105
I745
tp806
sI86
(I1465
I1345
I1225
tp807
sI87
(I1465
I865
I265
tp808
sI88
(I1500
I1060
I60
tp809
sI89
(I1500
I110
I60
tp810
sI90
(I1500
I1260
I60
tp811
sI91
(I1500
I1300
I60
tp812
sI92
(I1500
I1400
I60
tp813
sI93
(I1500
I1450
I60
tp814
sI94
(I1500
I1460
I60
tp815
sI95
(I1500
I1490
I60
tp816
sI96
(I1500
I160
I60
tp817
sI97
(I1500
I260
I60
tp818
sI98
(I1500
I460
I60
tp819
sI99
(I1500
I660
I60
tp820
sI100
(I1500
I70
I60
tp821
sI101
(I1500
I860
I60
tp822
sI102
(I1505
I1185
I865
tp823
sI103
(I1505
I945
I385
tp824
sI104
(I1545
I1025
I505
tp825
sI105
(I1545
I785
I25
tp826
sI106
(I1585
I1105
I625
tp827
sI107
(I1585
I1345
I1105
tp828
sI108
(I1585
I865
I145
tp829
sI109
(I1600
I1060
I60
tp830
sI110
(I1600
I110
I60
tp831
sI111
(I1600
I1260
I60
tp832
sI112
(I1600
I1400
I60
tp833
sI113
(I1600
I1460
I60
tp834
sI114
(I1600
I1500
I60
tp835
sI115
(I1600
I1550
I60
tp836
sI116
(I1600
I1590
I60
tp837
sI117
(I1600
I160
I60
tp838
sI118
(I1600
I260
I60
tp839
sI119
(I1600
I460
I60
tp840
sI120
(I1600
I660
I60
tp841
sI121
(I1600
I70
I60
tp842
sI122
(I1600
I860
I60
tp843
sI123
(I1625
I1185
I745
tp844
sI124
(I1625
I945
I265
tp845
sI125
(I1665
I1025
I385
tp846
sI126
(I1665
I1265
I865
tp847
sI127
(I1700
I1060
I60
tp848
sI128
(I1700
I110
I60
tp849
sI129
(I1700
I1200
I60
tp850
sI130
(I1700
I1400
I60
tp851
sI131
(I1700
I1500
I60
tp852
sI132
(I1700
I1600
I60
tp853
sI133
(I1700
I160
I60
tp854
sI134
(I1700
I1650
I60
tp855
sI135
(I1700
I1690
I60
tp856
sI136
(I1700
I260
I60
tp857
sI137
(I1700
I460
I60
tp858
sI138
(I1700
I660
I60
tp859
sI139
(I1700
I70
I60
tp860
sI140
(I1700
I860
I60
tp861
sI141
(I1705
I1105
I505
tp862
sI142
(I1705
I1345
I985
tp863
sI143
(I1705
I865
I25
tp864
sI144
(I1745
I1185
I625
tp865
sI145
(I1745
I945
I145
tp866
sI146
(I1785
I1025
I265
tp867
sI147
(I1785
I1265
I745
tp868
sI148
(I1800
I1060
I60
tp869
sI149
(I1800
I110
I60
tp870
sI150
(I1800
I1260
I60
tp871
sI151
(I1800
I1460
I60
tp872
sI152
(I1800
I1600
I60
tp873
sI153
(I1800
I160
I60
tp874
sI154
(I1800
I1660
I60
tp875
sI155
(I1800
I1700
I60
tp876
sI156
(I1800
I1750
I60
tp877
sI157
(I1800
I1790
I60
tp878
sI158
(I1800
I260
I60
tp879
sI159
(I1800
I460
I60
tp880
sI160
(I1800
I660
I60
tp881
sI161
(I1800
I70
I60
tp882
sI162
(I1800
I860
I60
tp883
sI163
(I1825
I1105
I385
tp884
sI164
(I1825
I1345
I865
tp885
sI165
(I1865
I1185
I505
tp886
sI166
(I1865
I945
I25
tp887
sI167
(I1900
I1060
I60
tp888
sI168
(I1900
I1200
I60
tp889
sI169
(I1900
I1400
I60
tp890
sI170
(I1900
I1500
I60
tp891
sI171
(I1900
I1600
I60
tp892
sI172
(I1900
I160
I60
tp893
sI173
(I1900
I1700
I60
tp894
sI174
(I1900
I1800
I60
tp895
sI175
(I1900
I1890
I60
tp896
sI176
(I1900
I260
I60
tp897
sI177
(I1900
I460
I60
tp898
sI178
(I1900
I660
I60
tp899
sI179
(I1900
I70
I60
tp900
sI180
(I1900
I860
I60
tp901
sI181
(I1905
I1025
I145
tp902
sI182
(I1905
I1265
I625
tp903
sI183
(I1945
I1105
I265
tp904
sI184
(I1945
I1345
I745
tp905
sI185
(I1985
I1185
I385
tp906
sI186
(I2000
I1060
I60
tp907
sI187
(I2000
I110
I60
tp908
sI188
(I2000
I1260
I60
tp909
sI189
(I2000
I1460
I60
tp910
sI190
(I2000
I160
I60
tp911
sI191
(I2000
I1660
I60
tp912
sI192
(I2000
I1800
I60
tp913
sI193
(I2000
I1860
I60
tp914
sI194
(I2000
I1900
I60
tp915
sI195
(I2000
I1950
I60
tp916
sI196
(I2000
I1990
I60
tp917
sI197
(I2000
I260
I60
tp918
sI198
(I2000
I460
I60
tp919
sI199
(I2000
I660
I60
tp920
sI200
(I2000
I70
I60
tp921
sI201
(I2000
I860
I60
tp922
sI202
(I2025
I1025
I25
tp923
sI203
(I2025
I1265
I505
tp924
sI204
(I2065
I1105
I145
tp925
sI205
(I2065
I1345
I625
tp926
sI206
(I2100
I1060
I60
tp927
sI207
(I2100
I1200
I60
tp928
sI208
(I2100
I1400
I60
tp929
sI209
(I2100
I1500
I60
tp930
sI210
(I2100
I1600
I60
tp931
sI211
(I2100
I160
I60
tp932
sI212
(I2100
I1700
I60
tp933
sI213
(I2100
I1800
I60
tp934
sI214
(I2100
I1900
I60
tp935
sI215
(I2100
I2000
I60
tp936
sI216
(I2100
I2090
I60
tp937
sI217
(I2100
I260
I60
tp938
sI218
(I2100
I660
I60
tp939
sI219
(I2100
I70
I60
tp940
sI220
(I2100
I860
I60
tp941
sI221
(I2105
I1185
I265
tp942
sI222
(I2145
I1265
I385
tp943
sI223
(I2185
I1105
I25
tp944
sI224
(I2185
I1345
I505
tp945
sI225
(I2225
I1185
I145
tp946
sI226
(I2265
I1265
I265
tp947
sI227
(I237
I226
I215
tp948
sI228
(I265
I225
I185
tp949
sI229
(I317
I306
I295
tp950
sI230
(I345
I305
I265
tp951
sI231
(I397
I386
I375
tp952
sI232
(I425
I385
I345
tp953
sI233
(I477
I466
I455
tp954
sI234
(I505
I465
I425
tp955
sI235
(I545
I465
I385
tp956
sI236
(I557
I546
I535
tp957
sI237
(I585
I545
I505
tp958
sI238
(I625
I385
I145
tp959
sI239
(I637
I626
I615
tp960
sI240
(I665
I465
I265
tp961
sI241
(I665
I625
I585
tp962
sI242
(I705
I545
I385
tp963
sI243
(I717
I706
I695
tp964
sI244
(I745
I385
I25
tp965
sI245
(I745
I625
I505
tp966
sI246
(I785
I465
I145
tp967
sI247
(I785
I705
I625
tp968
sI248
(I797
I786
I775
tp969
sI249
(I825
I545
I265
tp970
sI250
(I825
I785
I745
tp971
sI251
(I865
I625
I385
tp972
sI252
(I877
I866
I855
tp973
sI253
(I905
I465
I25
tp974
sI254
(I905
I705
I505
tp975
sI255
(I905
I865
I825
tp976
sI256
(I945
I545
I145
tp977
sI257
(I945
I785
I625
tp978
sI258
(I957
I946
I935
tp979
sI259
(I985
I625
I265
tp980
sI260
(I985
I865
I745
tp981
sI261
(I985
I945
I905
tp982
ss.